target datalayout = "e-m:e-p270:32:32-p271:32:32-p272:64:64-i64:64-i128:128-f80:128-n8:16:32:64-S128"
target triple = "x86_64-pc-linux-gnu"

@.str = private unnamed_addr constant [34 x i8] c"../openssl/crypto/x509/x_pubkey.c\00", align 1
@X509_PUBKEY_INTERNAL_it.local_it = internal constant { i8, [7 x i8], i64, ptr, i64, ptr, i64, ptr } { i8 1, [7 x i8] zeroinitializer, i64 16, ptr @X509_PUBKEY_INTERNAL_seq_tt, i64 2, ptr null, i64 48, ptr @.str.1 }, align 8

; Function Attrs: nounwind uwtable
define internal ptr @X509_PUBKEY_INTERNAL_it() #0 {
  ret ptr @X509_PUBKEY_INTERNAL_it.local_it
}

; Function Attrs: nounwind uwtable
define ptr @ossl_d2i_X509_PUBKEY_INTERNAL(ptr noundef %0, i64 noundef %1, ptr noundef %2, ptr noundef %3) #0 {
  %5 = alloca ptr, align 8
  %6 = alloca ptr, align 8
  %7 = alloca i64, align 8
  %8 = alloca ptr, align 8
  %9 = alloca ptr, align 8
  %10 = alloca ptr, align 8
  %11 = alloca i32, align 4
  store ptr %0, ptr %6, align 8, !tbaa !3
  store i64 %1, ptr %7, align 8, !tbaa !8
  store ptr %2, ptr %8, align 8, !tbaa !10
  store ptr %3, ptr %9, align 8, !tbaa !12
  call void @llvm.lifetime.start.p0(i64 8, ptr %10) #5
  %12 = call noalias ptr @CRYPTO_zalloc(i64 noundef 48, ptr noundef @.str, i32 noundef 72)
  store ptr %12, ptr %10, align 8, !tbaa !14
  %13 = load ptr, ptr %10, align 8, !tbaa !14
  %14 = icmp eq ptr %13, null
  br i1 %14, label %15, label %16

15:                                               ; preds = %4
  store ptr null, ptr %5, align 8
  store i32 1, ptr %11, align 4
  br label %23

16:                                               ; preds = %4
  %17 = load ptr, ptr %6, align 8, !tbaa !3
  %18 = load i64, ptr %7, align 8, !tbaa !8
  %19 = call ptr @X509_PUBKEY_INTERNAL_it()
  %20 = load ptr, ptr %8, align 8, !tbaa !10
  %21 = load ptr, ptr %9, align 8, !tbaa !12
  %22 = call ptr @ASN1_item_d2i_ex(ptr noundef %10, ptr noundef %17, i64 noundef %18, ptr noundef %19, ptr noundef %20, ptr noundef %21)
  store ptr %22, ptr %5, align 8
  store i32 1, ptr %11, align 4
  br label %23

23:                                               ; preds = %16, %15
  call void @llvm.lifetime.end.p0(i64 8, ptr %10) #5
  %24 = load ptr, ptr %5, align 8
  ret ptr %24
}