; Function Attrs: nounwind uwtable
define ptr @ossl_d2i_X509_PUBKEY_INTERNAL(ptr noundef %0, i64 noundef %1, ptr noundef %2, ptr noundef %3) local_unnamed_addr #0 {
  %5 = alloca ptr, align 8
  call void @llvm.lifetime.start.p0(i64 8, ptr nonnull %5) #9
  %6 = tail call noalias ptr @CRYPTO_zalloc(i64 noundef 48, ptr noundef nonnull @.str, i32 noundef 72) #9
  store ptr %6, ptr %5, align 8, !tbaa !3
  %7 = icmp eq ptr %6, null
  br i1 %7, label %10, label %8

8:                                                ; preds = %4
  %9 = call ptr @ASN1_item_d2i_ex(ptr noundef nonnull %5, ptr noundef %0, i64 noundef %1, ptr noundef nonnull @X509_PUBKEY_INTERNAL_it.local_it, ptr noundef %2, ptr noundef %3) #9
  br label %10

10:                                               ; preds = %4, %8
  %.0 = phi ptr [ %9, %8 ], [ null, %4 ]
  call void @llvm.lifetime.end.p0(i64 8, ptr nonnull %5) #9
  ret ptr %.0
}